target datalayout = "e-m:e-p270:32:32-p271:32:32-p272:64:64-i64:64-i128:128-f80:128-n8:16:32:64-S128"
target triple = "x86_64-pc-linux-gnu"

%struct.pcre2_memctl = type { ptr, ptr, ptr }
%struct.pcre2_callout_block_8 = type { i32, i32, i32, i32, ptr, ptr, ptr, i64, i64, i64, i64, i64, i64, i64, ptr, i32 }
%struct.dfa_match_block_8 = type { %struct.pcre2_memctl, ptr, ptr, ptr, ptr, ptr, ptr, i64, i32, i64, i32, i32, i32, i32, i32, i32, i32, i32, [4 x i8], i16, ptr, ptr, ptr, ptr }

@_pcre2_OP_lengths_8 = external constant [0 x i8], align 1

; Function Attrs: nounwind uwtable
define internal i32 @do_callout_dfa(ptr noundef %0, ptr noundef %1, ptr noundef %2, ptr noundef %3, ptr noundef %4, i64 noundef %5, ptr noundef %6) #0 {
  %8 = alloca i32, align 4
  %9 = alloca ptr, align 8
  %10 = alloca ptr, align 8
  %11 = alloca ptr, align 8
  %12 = alloca ptr, align 8
  %13 = alloca ptr, align 8
  %14 = alloca i64, align 8
  %15 = alloca ptr, align 8
  %16 = alloca ptr, align 8
  store ptr %0, ptr %9, align 8
  store ptr %1, ptr %10, align 8
  store ptr %2, ptr %11, align 8
  store ptr %3, ptr %12, align 8
  store ptr %4, ptr %13, align 8
  store i64 %5, ptr %14, align 8
  store ptr %6, ptr %15, align 8
  %17 = load ptr, ptr %13, align 8
  %18 = getelementptr inbounds %struct.dfa_match_block_8, ptr %17, i32 0, i32 20
  %19 = load ptr, ptr %18, align 8
  store ptr %19, ptr %16, align 8
  %20 = load ptr, ptr %9, align 8
  %21 = load i64, ptr %14, align 8
  %22 = getelementptr inbounds i8, ptr %20, i64 %21
  %23 = load i8, ptr %22, align 1
  %24 = zext i8 %23 to i32
  %25 = icmp eq i32 %24, 118
  br i1 %25, label %26, label %29

26:                                               ; preds = %7
  %27 = load i8, ptr getelementptr inbounds ([0 x i8], ptr @_pcre2_OP_lengths_8, i64 0, i64 118), align 1
  %28 = zext i8 %27 to i64
  br label %46

29:                                               ; preds = %7
  %30 = load ptr, ptr %9, align 8
  %31 = load i64, ptr %14, align 8
  %32 = add i64 5, %31
  %33 = getelementptr inbounds i8, ptr %30, i64 %32
  %34 = load i8, ptr %33, align 1
  %35 = zext i8 %34 to i32
  %36 = shl i32 %35, 8
  %37 = load ptr, ptr %9, align 8
  %38 = load i64, ptr %14, align 8
  %39 = add i64 5, %38
  %40 = add i64 %39, 1
  %41 = getelementptr inbounds i8, ptr %37, i64 %40
  %42 = load i8, ptr %41, align 1
  %43 = zext i8 %42 to i32
  %44 = or i32 %36, %43
  %45 = zext i32 %44 to i64
  br label %46

46:                                               ; preds = %29, %26
  %47 = phi i64 [ %28, %26 ], [ %45, %29 ]
  %48 = load ptr, ptr %15, align 8
  store i64 %47, ptr %48, align 8
  %49 = load ptr, ptr %13, align 8
  %50 = getelementptr inbounds %struct.dfa_match_block_8, ptr %49, i32 0, i32 22
  %51 = load ptr, ptr %50, align 8
  %52 = icmp eq ptr %51, null
  br i1 %52, label %53, label %54

53:                                               ; preds = %46
  store i32 0, ptr %8, align 4
  br label %176

54:                                               ; preds = %46
  %55 = load ptr, ptr %10, align 8
  %56 = load ptr, ptr %16, align 8
  %57 = getelementptr inbounds %struct.pcre2_callout_block_8, ptr %56, i32 0, i32 4
  store ptr %55, ptr %57, align 8
  %58 = load ptr, ptr %11, align 8
  %59 = load ptr, ptr %13, align 8
  %60 = getelementptr inbounds %struct.dfa_match_block_8, ptr %59, i32 0, i32 2
  %61 = load ptr, ptr %60, align 8
  %62 = ptrtoint ptr %58 to i64
  %63 = ptrtoint ptr %61 to i64
  %64 = sub i64 %62, %63
  %65 = load ptr, ptr %16, align 8
  %66 = getelementptr inbounds %struct.pcre2_callout_block_8, ptr %65, i32 0, i32 8
  store i64 %64, ptr %66, align 8
  %67 = load ptr, ptr %12, align 8
  %68 = load ptr, ptr %13, align 8
  %69 = getelementptr inbounds %struct.dfa_match_block_8, ptr %68, i32 0, i32 2
  %70 = load ptr, ptr %69, align 8
  %71 = ptrtoint ptr %67 to i64
  %72 = ptrtoint ptr %70 to i64
  %73 = sub i64 %71, %72
  %74 = load ptr, ptr %16, align 8
  %75 = getelementptr inbounds %struct.pcre2_callout_block_8, ptr %74, i32 0, i32 9
  store i64 %73, ptr %75, align 8
  %76 = load ptr, ptr %9, align 8
  %77 = load i64, ptr %14, align 8
  %78 = add i64 1, %77
  %79 = getelementptr inbounds i8, ptr %76, i64 %78
  %80 = load i8, ptr %79, align 1
  %81 = zext i8 %80 to i32
  %82 = shl i32 %81, 8
  %83 = load ptr, ptr %9, align 8
  %84 = load i64, ptr %14, align 8
  %85 = add i64 1, %84
  %86 = add i64 %85, 1
  %87 = getelementptr inbounds i8, ptr %83, i64 %86
  %88 = load i8, ptr %87, align 1
  %89 = zext i8 %88 to i32
  %90 = or i32 %82, %89
  %91 = zext i32 %90 to i64
  %92 = load ptr, ptr %16, align 8
  %93 = getelementptr inbounds %struct.pcre2_callout_block_8, ptr %92, i32 0, i32 10
  store i64 %91, ptr %93, align 8
  %94 = load ptr, ptr %9, align 8
  %95 = load i64, ptr %14, align 8
  %96 = add i64 3, %95
  %97 = getelementptr inbounds i8, ptr %94, i64 %96
  %98 = load i8, ptr %97, align 1
  %99 = zext i8 %98 to i32
  %100 = shl i32 %99, 8
  %101 = load ptr, ptr %9, align 8
  %102 = load i64, ptr %14, align 8
  %103 = add i64 3, %102
  %104 = add i64 %103, 1
  %105 = getelementptr inbounds i8, ptr %101, i64 %104
  %106 = load i8, ptr %105, align 1
  %107 = zext i8 %106 to i32
  %108 = or i32 %100, %107
  %109 = zext i32 %108 to i64
  %110 = load ptr, ptr %16, align 8
  %111 = getelementptr inbounds %struct.pcre2_callout_block_8, ptr %110, i32 0, i32 11
  store i64 %109, ptr %111, align 8
  %112 = load ptr, ptr %9, align 8
  %113 = load i64, ptr %14, align 8
  %114 = getelementptr inbounds i8, ptr %112, i64 %113
  %115 = load i8, ptr %114, align 1
  %116 = zext i8 %115 to i32
  %117 = icmp eq i32 %116, 118
  br i1 %117, label %118, label %133

118:                                              ; preds = %54
  %119 = load ptr, ptr %9, align 8
  %120 = load i64, ptr %14, align 8
  %121 = add i64 5, %120
  %122 = getelementptr inbounds i8, ptr %119, i64 %121
  %123 = load i8, ptr %122, align 1
  %124 = zext i8 %123 to i32
  %125 = load ptr, ptr %16, align 8
  %126 = getelementptr inbounds %struct.pcre2_callout_block_8, ptr %125, i32 0, i32 1
  store i32 %124, ptr %126, align 4
  %127 = load ptr, ptr %16, align 8
  %128 = getelementptr inbounds %struct.pcre2_callout_block_8, ptr %127, i32 0, i32 12
  store i64 0, ptr %128, align 8
  %129 = load ptr, ptr %16, align 8
  %130 = getelementptr inbounds %struct.pcre2_callout_block_8, ptr %129, i32 0, i32 14
  store ptr null, ptr %130, align 8
  %131 = load ptr, ptr %16, align 8
  %132 = getelementptr inbounds %struct.pcre2_callout_block_8, ptr %131, i32 0, i32 13
  store i64 0, ptr %132, align 8
  br label %167

133:                                              ; preds = %54
  %134 = load ptr, ptr %16, align 8
  %135 = getelementptr inbounds %struct.pcre2_callout_block_8, ptr %134, i32 0, i32 1
  store i32 0, ptr %135, align 4
  %136 = load ptr, ptr %9, align 8
  %137 = load i64, ptr %14, align 8
  %138 = add i64 7, %137
  %139 = getelementptr inbounds i8, ptr %136, i64 %138
  %140 = load i8, ptr %139, align 1
  %141 = zext i8 %140 to i32
  %142 = shl i32 %141, 8
  %143 = load ptr, ptr %9, align 8
  %144 = load i64, ptr %14, align 8
  %145 = add i64 7, %144
  %146 = add i64 %145, 1
  %147 = getelementptr inbounds i8, ptr %143, i64 %146
  %148 = load i8, ptr %147, align 1
  %149 = zext i8 %148 to i32
  %150 = or i32 %142, %149
  %151 = zext i32 %150 to i64
  %152 = load ptr, ptr %16, align 8
  %153 = getelementptr inbounds %struct.pcre2_callout_block_8, ptr %152, i32 0, i32 12
  store i64 %151, ptr %153, align 8
  %154 = load ptr, ptr %9, align 8
  %155 = load i64, ptr %14, align 8
  %156 = add i64 9, %155
  %157 = getelementptr inbounds i8, ptr %154, i64 %156
  %158 = getelementptr inbounds i8, ptr %157, i64 1
  %159 = load ptr, ptr %16, align 8
  %160 = getelementptr inbounds %struct.pcre2_callout_block_8, ptr %159, i32 0, i32 14
  store ptr %158, ptr %160, align 8
  %161 = load ptr, ptr %15, align 8
  %162 = load i64, ptr %161, align 8
  %163 = sub i64 %162, 9
  %164 = sub i64 %163, 2
  %165 = load ptr, ptr %16, align 8
  %166 = getelementptr inbounds %struct.pcre2_callout_block_8, ptr %165, i32 0, i32 13
  store i64 %164, ptr %166, align 8
  br label %167

167:                                              ; preds = %133, %118
  %168 = load ptr, ptr %13, align 8
  %169 = getelementptr inbounds %struct.dfa_match_block_8, ptr %168, i32 0, i32 22
  %170 = load ptr, ptr %169, align 8
  %171 = load ptr, ptr %16, align 8
  %172 = load ptr, ptr %13, align 8
  %173 = getelementptr inbounds %struct.dfa_match_block_8, ptr %172, i32 0, i32 21
  %174 = load ptr, ptr %173, align 8
  %175 = call i32 %170(ptr noundef %171, ptr noundef %174)
  store i32 %175, ptr %8, align 4
  br label %176

176:                                              ; preds = %167, %53
  %177 = load i32, ptr %8, align 4
  ret i32 %177
}