; Function Attrs: nounwind uwtable
define internal fastcc i32 @do_callout_dfa(ptr noundef %0, ptr noundef %1, ptr noundef %2, ptr noundef %3, ptr nocapture noundef readonly %4, i64 noundef %5, ptr nocapture noundef %6) unnamed_addr #0 {
  %8 = getelementptr inbounds i8, ptr %4, i64 136
  %9 = load ptr, ptr %8, align 8
  %10 = getelementptr inbounds i8, ptr %0, i64 %5
  %11 = load i8, ptr %10, align 1
  %12 = icmp eq i8 %11, 118
  br i1 %12, label %13, label %16

13:                                               ; preds = %7
  %14 = load i8, ptr getelementptr inbounds ([0 x i8], ptr @_pcre2_OP_lengths_8, i64 0, i64 118), align 1
  %15 = zext i8 %14 to i64
  br label %25

16:                                               ; preds = %7
  %17 = getelementptr i8, ptr %10, i64 5
  %18 = load i8, ptr %17, align 1
  %19 = zext i8 %18 to i64
  %20 = shl nuw nsw i64 %19, 8
  %21 = getelementptr i8, ptr %10, i64 6
  %22 = load i8, ptr %21, align 1
  %23 = zext i8 %22 to i64
  %24 = or disjoint i64 %20, %23
  br label %25

25:                                               ; preds = %16, %13
  %26 = phi i64 [ %15, %13 ], [ %24, %16 ]
  store i64 %26, ptr %6, align 8
  %27 = getelementptr inbounds i8, ptr %4, i64 152
  %28 = load ptr, ptr %27, align 8
  %29 = icmp eq ptr %28, null
  br i1 %29, label %91, label %30

30:                                               ; preds = %25
  %31 = getelementptr inbounds i8, ptr %9, i64 16
  store ptr %1, ptr %31, align 8
  %32 = getelementptr inbounds i8, ptr %4, i64 32
  %33 = load ptr, ptr %32, align 8
  %34 = ptrtoint ptr %2 to i64
  %35 = ptrtoint ptr %33 to i64
  %36 = sub i64 %34, %35
  %37 = getelementptr inbounds i8, ptr %9, i64 48
  store i64 %36, ptr %37, align 8
  %38 = load ptr, ptr %32, align 8
  %39 = ptrtoint ptr %3 to i64
  %40 = ptrtoint ptr %38 to i64
  %41 = sub i64 %39, %40
  %42 = getelementptr inbounds i8, ptr %9, i64 56
  store i64 %41, ptr %42, align 8
  %43 = getelementptr i8, ptr %10, i64 1
  %44 = load i8, ptr %43, align 1
  %45 = zext i8 %44 to i64
  %46 = shl nuw nsw i64 %45, 8
  %47 = getelementptr i8, ptr %10, i64 2
  %48 = load i8, ptr %47, align 1
  %49 = zext i8 %48 to i64
  %50 = or disjoint i64 %46, %49
  %51 = getelementptr inbounds i8, ptr %9, i64 64
  store i64 %50, ptr %51, align 8
  %52 = getelementptr i8, ptr %10, i64 3
  %53 = load i8, ptr %52, align 1
  %54 = zext i8 %53 to i64
  %55 = shl nuw nsw i64 %54, 8
  %56 = getelementptr i8, ptr %10, i64 4
  %57 = load i8, ptr %56, align 1
  %58 = zext i8 %57 to i64
  %59 = or disjoint i64 %55, %58
  %60 = getelementptr inbounds i8, ptr %9, i64 72
  store i64 %59, ptr %60, align 8
  %61 = load i8, ptr %10, align 1
  %62 = icmp eq i8 %61, 118
  br i1 %62, label %63, label %70

63:                                               ; preds = %30
  %64 = getelementptr i8, ptr %10, i64 5
  %65 = load i8, ptr %64, align 1
  %66 = zext i8 %65 to i32
  %67 = getelementptr inbounds i8, ptr %9, i64 4
  store i32 %66, ptr %67, align 4
  %68 = getelementptr inbounds i8, ptr %9, i64 80
  store i64 0, ptr %68, align 8
  %69 = getelementptr inbounds i8, ptr %9, i64 96
  store ptr null, ptr %69, align 8
  br label %85

70:                                               ; preds = %30
  %71 = getelementptr inbounds i8, ptr %9, i64 4
  store i32 0, ptr %71, align 4
  %72 = getelementptr i8, ptr %10, i64 7
  %73 = load i8, ptr %72, align 1
  %74 = zext i8 %73 to i64
  %75 = shl nuw nsw i64 %74, 8
  %76 = getelementptr i8, ptr %10, i64 8
  %77 = load i8, ptr %76, align 1
  %78 = zext i8 %77 to i64
  %79 = or disjoint i64 %75, %78
  %80 = getelementptr inbounds i8, ptr %9, i64 80
  store i64 %79, ptr %80, align 8
  %81 = getelementptr i8, ptr %10, i64 10
  %82 = getelementptr inbounds i8, ptr %9, i64 96
  store ptr %81, ptr %82, align 8
  %83 = load i64, ptr %6, align 8
  %84 = add i64 %83, -11
  br label %85

85:                                               ; preds = %70, %63
  %.sink = phi i64 [ 0, %63 ], [ %84, %70 ]
  %86 = getelementptr inbounds i8, ptr %9, i64 88
  store i64 %.sink, ptr %86, align 8
  %87 = load ptr, ptr %27, align 8
  %88 = getelementptr inbounds i8, ptr %4, i64 144
  %89 = load ptr, ptr %88, align 8
  %90 = tail call i32 %87(ptr noundef nonnull %9, ptr noundef %89) #6
  br label %91

91:                                               ; preds = %25, %85
  %.0 = phi i32 [ %90, %85 ], [ 0, %25 ]
  ret i32 %.0
}